; Function Attrs: mustprogress uwtable
define noundef double @_ZN5Ipopt17PDFullSpaceSolver20ComputeResidualRatioERKNS_14IteratesVectorES3_S3_(ptr nocapture noundef nonnull readonly align 8 dereferenceable(145) %0, ptr noundef nonnull align 8 dereferenceable(280) %1, ptr noundef nonnull align 8 dereferenceable(280) %2, ptr noundef nonnull align 8 dereferenceable(280) %3) local_unnamed_addr #3 align 2 {
  %5 = getelementptr inbounds i8, ptr %1, i64 120
  %6 = load i32, ptr %5, align 8
  %7 = getelementptr inbounds i8, ptr %1, i64 48
  %8 = load i32, ptr %7, align 8
  %.not.i = icmp eq i32 %6, %8
  br i1 %.not.i, label %._crit_edge.i, label %9

._crit_edge.i:                                    ; preds = %4
  %.phi.trans.insert.i = getelementptr inbounds i8, ptr %1, i64 128
  %.pre.i = load double, ptr %.phi.trans.insert.i, align 8
  br label %_ZNK5Ipopt6Vector4AmaxEv.exit

9:                                                ; preds = %4
  %10 = load ptr, ptr %1, align 8
  %11 = getelementptr inbounds i8, ptr %10, i64 64
  %12 = load ptr, ptr %11, align 8
  %13 = tail call noundef double %12(ptr noundef nonnull align 8 dereferenceable(205) %1)
  %14 = getelementptr inbounds i8, ptr %1, i64 128
  store double %13, ptr %14, align 8
  %15 = load i32, ptr %7, align 8
  store i32 %15, ptr %5, align 8
  br label %_ZNK5Ipopt6Vector4AmaxEv.exit

_ZNK5Ipopt6Vector4AmaxEv.exit:                    ; preds = %._crit_edge.i, %9
  %16 = phi double [ %.pre.i, %._crit_edge.i ], [ %13, %9 ]
  %17 = getelementptr inbounds i8, ptr %2, i64 120
  %18 = load i32, ptr %17, align 8
  %19 = getelementptr inbounds i8, ptr %2, i64 48
  %20 = load i32, ptr %19, align 8
  %.not.i16 = icmp eq i32 %18, %20
  br i1 %.not.i16, label %._crit_edge.i17, label %21

._crit_edge.i17:                                  ; preds = %_ZNK5Ipopt6Vector4AmaxEv.exit
  %.phi.trans.insert.i18 = getelementptr inbounds i8, ptr %2, i64 128
  %.pre.i19 = load double, ptr %.phi.trans.insert.i18, align 8
  br label %_ZNK5Ipopt6Vector4AmaxEv.exit20

21:                                               ; preds = %_ZNK5Ipopt6Vector4AmaxEv.exit
  %22 = load ptr, ptr %2, align 8
  %23 = getelementptr inbounds i8, ptr %22, i64 64
  %24 = load ptr, ptr %23, align 8
  %25 = tail call noundef double %24(ptr noundef nonnull align 8 dereferenceable(205) %2)
  %26 = getelementptr inbounds i8, ptr %2, i64 128
  store double %25, ptr %26, align 8
  %27 = load i32, ptr %19, align 8
  store i32 %27, ptr %17, align 8
  br label %_ZNK5Ipopt6Vector4AmaxEv.exit20

_ZNK5Ipopt6Vector4AmaxEv.exit20:                  ; preds = %._crit_edge.i17, %21
  %28 = phi double [ %.pre.i19, %._crit_edge.i17 ], [ %25, %21 ]
  %29 = getelementptr inbounds i8, ptr %3, i64 120
  %30 = load i32, ptr %29, align 8
  %31 = getelementptr inbounds i8, ptr %3, i64 48
  %32 = load i32, ptr %31, align 8
  %.not.i21 = icmp eq i32 %30, %32
  br i1 %.not.i21, label %._crit_edge.i22, label %33

._crit_edge.i22:                                  ; preds = %_ZNK5Ipopt6Vector4AmaxEv.exit20
  %.phi.trans.insert.i23 = getelementptr inbounds i8, ptr %3, i64 128
  %.pre.i24 = load double, ptr %.phi.trans.insert.i23, align 8
  br label %_ZNK5Ipopt6Vector4AmaxEv.exit25

33:                                               ; preds = %_ZNK5Ipopt6Vector4AmaxEv.exit20
  %34 = load ptr, ptr %3, align 8
  %35 = getelementptr inbounds i8, ptr %34, i64 64
  %36 = load ptr, ptr %35, align 8
  %37 = tail call noundef double %36(ptr noundef nonnull align 8 dereferenceable(205) %3)
  %38 = getelementptr inbounds i8, ptr %3, i64 128
  store double %37, ptr %38, align 8
  %39 = load i32, ptr %31, align 8
  store i32 %39, ptr %29, align 8
  br label %_ZNK5Ipopt6Vector4AmaxEv.exit25

_ZNK5Ipopt6Vector4AmaxEv.exit25:                  ; preds = %._crit_edge.i22, %33
  %40 = phi double [ %.pre.i24, %._crit_edge.i22 ], [ %37, %33 ]
  %41 = getelementptr inbounds i8, ptr %0, i64 16
  %42 = load ptr, ptr %41, align 8
  %43 = load ptr, ptr %42, align 8
  %44 = getelementptr inbounds i8, ptr %43, i64 16
  %45 = load ptr, ptr %44, align 8
  tail call void (ptr, i32, i32, ptr, ...) %45(ptr noundef nonnull align 8 dereferenceable(40) %42, i32 noundef 7, i32 noundef 7, ptr noundef nonnull @.str.62, double noundef %16, double noundef %28, double noundef %40)
  %46 = fadd double %16, %28
  %47 = fcmp oeq double %46, 0.000000e+00
  br i1 %47, label %53, label %48

48:                                               ; preds = %_ZNK5Ipopt6Vector4AmaxEv.exit25
  %49 = fmul double %16, 1.000000e+06
  %50 = fcmp olt double %49, %28
  %.sroa.speculated.i = select i1 %50, double %49, double %28
  %51 = fadd double %16, %.sroa.speculated.i
  %52 = fdiv double %40, %51
  br label %53

53:                                               ; preds = %_ZNK5Ipopt6Vector4AmaxEv.exit25, %48
  %.0 = phi double [ %52, %48 ], [ %40, %_ZNK5Ipopt6Vector4AmaxEv.exit25 ]
  ret double %.0
}